Certificate:
    Data:
        Version: 3 (0x2)
        Serial Number: 0 (0x0)
        Signature Algorithm: sha256WithRSAEncryption
        Issuer: C=BE, ST=Oost-Vlaanderen, L=Wachtebeke, O=Dalion, CN=Dalion
        Validity
            Not Before: Jul 28 20:46:42 2019 GMT
            Not After : Jul 23 20:46:42 2039 GMT
        Subject: C=BE, ST=Oost-Vlaanderen, O=Dalion, CN=*.dalion.local
        Subject Public Key Info:
            Public Key Algorithm: rsaEncryption
                RSA Public-Key: (2048 bit)
                Modulus:
                    00:c7:8e:e2:cd:f9:c6:6f:bf:fd:fb:a6:5b:01:e9:
                    13:b4:23:ba:ff:7d:8e:9d:6d:1c:3f:a0:ee:b0:b9:
                    b6:6a:7f:55:9f:ae:c0:d4:4f:76:fb:5a:62:7e:fb:
                    3b:12:c6:f5:d3:6c:26:cc:d3:5a:8c:8a:60:9b:88:
                    77:38:64:59:e6:16:c3:0c:7c:e9:a8:1b:c6:ca:be:
                    69:66:66:f2:b1:88:0e:34:28:38:89:eb:c7:9f:7f:
                    72:df:59:97:52:28:dc:e4:8a:28:74:da:1c:ac:d8:
                    7b:e8:d5:3d:71:66:98:20:94:4f:cf:66:23:28:b6:
                    32:c9:f4:82:e1:f9:a1:12:ea:9c:68:97:b5:f1:6a:
                    a0:34:39:37:21:09:22:60:d9:51:1c:00:e1:f8:cd:
                    67:6b:38:70:ed:e6:61:4f:c4:02:b6:5c:e8:4e:09:
                    ce:5c:ea:58:f7:d5:f1:dd:95:8d:ed:53:ce:9f:97:
                    91:c5:ae:63:80:3c:b6:f3:cb:6c:f0:98:ac:04:6a:
                    a4:43:ed:4a:92:20:ef:0a:0c:90:62:b9:c9:00:96:
                    5b:1a:73:46:7c:53:99:02:33:01:f9:89:4a:a4:c0:
                    03:4d:d6:22:f4:02:8d:6f:08:21:8c:2d:f8:0b:f3:
                    b6:5d:05:f0:86:77:83:25:79:5a:74:cb:84:da:6f:
                    8b:fb
                Exponent: 65537 (0x10001)
        X509v3 extensions:
            X509v3 Subject Key Identifier: 
                E8:A4:57:38:F8:DE:3E:67:56:10:62:62:6C:72:F5:82:E5:4F:59:21
            X509v3 Basic Constraints: 
                CA:FALSE
            X509v3 Key Usage: 
                Digital Signature, Key Encipherment
            X509v3 Extended Key Usage: 
                TLS Web Server Authentication, TLS Web Client Authentication
            X509v3 Subject Alternative Name: 
                DNS:*.dalion.local, DNS:localhost, DNS:hp-dli, IP Address:127.0.0.1, IP Address:0:0:0:0:0:0:0:1
    Signature Algorithm: sha256WithRSAEncryption
         97:38:f4:0c:8b:8f:e4:ca:d0:89:08:fa:34:d7:6c:70:f9:66:
         83:25:ca:65:5c:0d:06:9c:fd:eb:da:05:bb:38:38:30:11:9e:
         76:0f:f9:1b:c3:c7:bb:bf:98:68:7a:1a:a2:c1:49:c8:74:47:
         d6:6a:84:a6:33:19:bb:29:3e:44:61:b4:1f:56:55:04:6b:0d:
         d7:cb:23:7a:0b:41:ad:11:9b:95:90:8f:fd:a9:81:91:ff:5e:
         3a:bb:3c:46:0e:0f:37:c3:ab:67:49:3d:8a:6d:22:06:c7:ea:
         a4:8b:00:9f:10:58:88:70:10:c5:81:bc:b1:a4:58:c2:72:68:
         19:56:0f:5e:f3:4d:30:e8:96:50:1f:93:6f:30:ce:cb:50:79:
         d0:fa:3a:55:82:f9:16:c7:e0:61:44:eb:3b:06:93:60:50:88:
         db:ff:df:6a:47:0b:ff:35:33:c4:b7:38:6d:fd:b4:ff:47:bb:
         2d:12:e8:20:c5:04:c3:d8:cf:c1:3a:1c:69:83:b4:51:42:91:
         bf:94:71:14:c7:19:e3:97:02:96:fa:46:42:85:95:dc:af:4d:
         cb:45:fa:05:9a:32:67:22:8e:b8:8b:6b:4e:d3:d3:a8:d9:d2:
         1f:f0:90:46:57:e9:7a:31:3c:b2:81:5b:44:f0:fb:bd:d4:91:
         cc:f5:0d:8f
-----BEGIN CERTIFICATE-----
MIIDyjCCArKgAwIBAgIBADANBgkqhkiG9w0BAQsFADBeMQswCQYDVQQGEwJCRTEY
MBYGA1UECAwPT29zdC1WbGFhbmRlcmVuMRMwEQYDVQQHDApXYWNodGViZWtlMQ8w
DQYDVQQKDAZEYWxpb24xDzANBgNVBAMMBkRhbGlvbjAeFw0xOTA3MjgyMDQ2NDJa
Fw0zOTA3MjMyMDQ2NDJaMFExCzAJBgNVBAYTAkJFMRgwFgYDVQQIDA9Pb3N0LVZs
YWFuZGVyZW4xDzANBgNVBAoMBkRhbGlvbjEXMBUGA1UEAwwOKi5kYWxpb24ubG9j
YWwwggEiMA0GCSqGSIb3DQEBAQUAA4IBDwAwggEKAoIBAQDHjuLN+cZvv/37plsB
6RO0I7r/fY6dbRw/oO6wubZqf1WfrsDUT3b7WmJ++zsSxvXTbCbM01qMimCbiHc4
ZFnmFsMMfOmoG8bKvmlmZvKxiA40KDiJ68eff3LfWZdSKNzkiih02hys2Hvo1T1x
ZpgglE/PZiMotjLJ9ILh+aES6pxol7XxaqA0OTchCSJg2VEcAOH4zWdrOHDt5mFP
xAK2XOhOCc5c6lj31fHdlY3tU86fl5HFrmOAPLbzy2zwmKwEaqRD7UqSIO8KDJBi
uckAllsac0Z8U5kCMwH5iUqkwANN1iL0Ao1vCCGMLfgL87ZdBfCGd4MleVp0y4Ta
b4v7AgMBAAGjgZ8wgZwwHQYDVR0OBBYEFOikVzj43j5nVhBiYmxy9YLlT1khMAkG
A1UdEwQCMAAwCwYDVR0PBAQDAgWgMB0GA1UdJQQWMBQGCCsGAQUFBwMBBggrBgEF
BQcDAjBEBgNVHREEPTA7gg4qLmRhbGlvbi5sb2NhbIIJbG9jYWxob3N0ggZocC1k
bGmHBH8AAAGHEAAAAAAAAAAAAAAAAAAAAAEwDQYJKoZIhvcNAQELBQADggEBAJc4
9AyLj+TK0IkI+jTXbHD5ZoMlymVcDQac/evaBbs4ODARnnYP+RvDx7u/mGh6GqLB
Sch0R9ZqhKYzGbspPkRhtB9WVQRrDdfLI3oLQa0Rm5WQj/2pgZH/Xjq7PEYODzfD
q2dJPYptIgbH6qSLAJ8QWIhwEMWBvLGkWMJyaBlWD17zTTDollAfk28wzstQedD6
OlWC+RbH4GFE6zsGk2BQiNv/32pHC/81M8S3OG39tP9Huy0S6CDFBMPYz8E6HGmD
tFFCkb+UcRTHGeOXApb6RkKFldyvTctF+gWaMmcijriLa07T06jZ0h/wkEZX6Xox
PLKBW0Tw+73Ukcz1DY8=
-----END CERTIFICATE-----
