Certificate:
    Data:
        Version: 3 (0x2)
        Serial Number: 1 (0x1)
        Signature Algorithm: sha256WithRSAEncryption
        Issuer: C=BE, ST=Oost-Vlaanderen, L=Wachtebeke, O=Dalion, CN=Dalion
        Validity
            Not Before: Jul 28 21:37:09 2019 GMT
            Not After : Jul 23 21:37:09 2039 GMT
        Subject: C=BE, ST=Oost-Vlaanderen, O=Dalion, CN=*.dalion.local
        Subject Public Key Info:
            Public Key Algorithm: rsaEncryption
                RSA Public-Key: (2048 bit)
                Modulus:
                    00:f8:ef:05:f5:94:62:23:b4:01:d8:11:ef:0f:b0:
                    86:bb:98:98:ed:17:8a:cc:06:72:39:ef:6d:62:82:
                    a2:e3:68:4e:ab:73:ea:b7:6b:be:16:46:a6:43:2a:
                    82:df:85:67:55:06:f9:2e:9e:10:1f:bb:86:12:65:
                    56:63:ba:88:27:7c:fd:79:ab:e9:09:69:88:43:e9:
                    3b:2c:76:b1:b1:66:e8:52:38:7c:0f:d8:0c:50:c6:
                    8b:b3:67:fe:c4:30:68:e8:0c:a9:d0:3e:56:cf:ab:
                    b0:a3:ac:7f:ce:d9:dd:ad:48:80:62:09:6f:48:35:
                    6b:a3:47:01:b1:92:e7:64:73:57:1b:42:7f:12:80:
                    55:9e:41:ac:05:1b:9d:06:bc:d7:9e:57:f8:61:2b:
                    20:23:17:d8:31:e3:a4:41:83:da:33:19:bb:e8:8e:
                    a8:75:9a:a6:dc:4d:5b:f3:d0:ef:66:66:fc:c8:65:
                    29:53:1d:78:99:13:d8:6a:89:ff:0f:6e:d7:b5:b3:
                    e7:e0:f7:da:b5:99:3c:f7:43:44:78:bc:7e:ae:fe:
                    37:5a:17:d4:73:31:02:32:9a:94:22:ed:cd:39:94:
                    19:64:28:d2:cb:aa:a9:f1:82:a0:6c:be:ad:ca:aa:
                    88:7c:ac:16:47:70:3b:1c:f9:a9:8f:ca:ab:60:73:
                    37:b9
                Exponent: 65537 (0x10001)
        X509v3 extensions:
            X509v3 Subject Key Identifier: 
                31:33:2D:AB:6F:E1:00:BC:0E:25:58:23:E7:15:4B:22:0A:9A:F8:5B
            X509v3 Basic Constraints: 
                CA:FALSE
            X509v3 Key Usage: 
                Digital Signature, Key Encipherment
            X509v3 Extended Key Usage: 
                TLS Web Server Authentication, TLS Web Client Authentication
            X509v3 Subject Alternative Name: 
                DNS:dalion.local, DNS:*.dalion.local, DNS:localhost, DNS:hp-dli, DNS:hp-dl, IP Address:127.0.0.1, IP Address:0:0:0:0:0:0:0:1
    Signature Algorithm: sha256WithRSAEncryption
         8e:8a:21:40:00:27:65:c6:ed:b8:cc:aa:32:2f:82:eb:7a:54:
         23:45:fd:91:98:56:64:6f:16:fb:77:5d:a2:e5:8e:89:cd:32:
         bf:bd:91:e1:c0:a9:fd:0e:e2:60:7d:3c:cd:55:08:ba:f9:24:
         af:53:68:97:5c:49:42:5e:ee:ca:9d:9f:ff:66:ae:4d:78:b7:
         89:c8:66:9b:10:66:20:d8:8d:d8:99:61:fa:1e:5a:80:5b:29:
         c3:64:7c:d3:59:69:85:7b:14:ee:1f:0b:5f:e1:50:6e:a9:8e:
         d8:bc:65:e9:66:96:93:d8:42:67:d8:47:05:eb:8a:49:2d:9d:
         0d:44:78:f9:60:85:ca:fd:4a:3c:36:8c:87:3c:97:3e:f8:65:
         73:d1:08:6a:9d:3a:4f:9e:67:5c:f8:a6:6a:be:d3:40:b3:3e:
         19:fa:09:1b:d1:d8:48:2a:cf:01:c4:bf:ee:34:c8:1e:8a:65:
         88:ee:bb:8f:bf:5e:b1:49:19:db:97:61:8c:64:46:ba:f8:3f:
         30:3e:95:f9:0e:9a:32:b1:e5:45:30:70:3e:f0:41:fc:64:fe:
         e2:8f:db:8b:c5:7f:57:13:57:01:75:d4:83:87:95:75:3c:61:
         da:31:aa:03:45:96:f3:37:4d:88:3b:a2:ad:ab:49:b8:6f:5f:
         8f:c9:a7:8c
-----BEGIN CERTIFICATE-----
MIID3zCCAsegAwIBAgIBATANBgkqhkiG9w0BAQsFADBeMQswCQYDVQQGEwJCRTEY
MBYGA1UECAwPT29zdC1WbGFhbmRlcmVuMRMwEQYDVQQHDApXYWNodGViZWtlMQ8w
DQYDVQQKDAZEYWxpb24xDzANBgNVBAMMBkRhbGlvbjAeFw0xOTA3MjgyMTM3MDla
Fw0zOTA3MjMyMTM3MDlaMFExCzAJBgNVBAYTAkJFMRgwFgYDVQQIDA9Pb3N0LVZs
YWFuZGVyZW4xDzANBgNVBAoMBkRhbGlvbjEXMBUGA1UEAwwOKi5kYWxpb24ubG9j
YWwwggEiMA0GCSqGSIb3DQEBAQUAA4IBDwAwggEKAoIBAQD47wX1lGIjtAHYEe8P
sIa7mJjtF4rMBnI5721igqLjaE6rc+q3a74WRqZDKoLfhWdVBvkunhAfu4YSZVZj
uognfP15q+kJaYhD6TssdrGxZuhSOHwP2AxQxouzZ/7EMGjoDKnQPlbPq7CjrH/O
2d2tSIBiCW9INWujRwGxkudkc1cbQn8SgFWeQawFG50GvNeeV/hhKyAjF9gx46RB
g9ozGbvojqh1mqbcTVvz0O9mZvzIZSlTHXiZE9hqif8Pbte1s+fg99q1mTz3Q0R4
vH6u/jdaF9RzMQIympQi7c05lBlkKNLLqqnxgqBsvq3Kqoh8rBZHcDsc+amPyqtg
cze5AgMBAAGjgbQwgbEwHQYDVR0OBBYEFDEzLatv4QC8DiVYI+cVSyIKmvhbMAkG
A1UdEwQCMAAwCwYDVR0PBAQDAgWgMB0GA1UdJQQWMBQGCCsGAQUFBwMBBggrBgEF
BQcDAjBZBgNVHREEUjBQggxkYWxpb24ubG9jYWyCDiouZGFsaW9uLmxvY2Fsggls
b2NhbGhvc3SCBmhwLWRsaYIFaHAtZGyHBH8AAAGHEAAAAAAAAAAAAAAAAAAAAAEw
DQYJKoZIhvcNAQELBQADggEBAI6KIUAAJ2XG7bjMqjIvgut6VCNF/ZGYVmRvFvt3
XaLljonNMr+9keHAqf0O4mB9PM1VCLr5JK9TaJdcSUJe7sqdn/9mrk14t4nIZpsQ
ZiDYjdiZYfoeWoBbKcNkfNNZaYV7FO4fC1/hUG6pjti8ZelmlpPYQmfYRwXrikkt
nQ1EePlghcr9Sjw2jIc8lz74ZXPRCGqdOk+eZ1z4pmq+00CzPhn6CRvR2EgqzwHE
v+40yB6KZYjuu4+/XrFJGduXYYxkRrr4PzA+lfkOmjKx5UUwcD7wQfxk/uKP24vF
f1cTVwF11IOHlXU8YdoxqgNFlvM3TYg7oq2rSbhvX4/Jp4w=
-----END CERTIFICATE-----
